-----BEGIN CERTIFICATE-----
MIIGhTCCBW2gAwIBAgIMX7stJmTPVsTscpb0MA0GCSqGSIb3DQEBCwUAMFAxCzAJ
BgNVBAYTAkJFMRkwFwYDVQQKExBHbG9iYWxTaWduIG52LXNhMSYwJAYDVQQDEx1H
bG9iYWxTaWduIFJTQSBPViBTU0wgQ0EgMjAxODAeFw0yMTA1MzEwMTU5MjRaFw0y
MjA3MDIwMTU5MjRaMHcxCzAJBgNVBAYTAlBFMQ0wCwYDVQQIEwRMSU1BMQ0wCwYD
VQQHEwRMSU1BMRgwFgYDVQQKEw9FbnRlbCBQZXJ1IFMuQS4xMDAuBgNVBAMTJ2gt
c2xwLm1uYzAxNy5tY2M3MTYucHViLjNncHBuZXR3b3JrLm9yZzCCASIwDQYJKoZI
hvcNAQEBBQADggEPADCCAQoCggEBAJ/GAUtBPyTOFqz/7qfhCM1jIJMx/l35RhCU
ov6w5w+YG3u4ZCS/Str5+qWdduplvnlyX8kHCWUnAa2htMwyXhj584eJsvMWVbLL
E+IAX7P/VSpUcBouaE3o8PJ+u8izDzTva14yN+eqGmak4z2Uc7fqyZJV0CP7lHXl
IdZxiOWsWdD3+/xjb5JBXUEUx8ZgPEb05YJSK0lAdCkWhUsVhs8Y59J11MLJ/4pg
BkyLYsSarrZR6DeXzli/tcYWrjTpoK50Aw9TxtlFG1Yx4JkW39tFcBEbzTO3znqG
itEIYEVRlkt79Y4HCkJze0lFlejXS66/mjVIKWOmTZPb3AssKT0CAwEAAaOCAzYw
ggMyMA4GA1UdDwEB/wQEAwIFoDCBjgYIKwYBBQUHAQEEgYEwfzBEBggrBgEFBQcw
AoY4aHR0cDovL3NlY3VyZS5nbG9iYWxzaWduLmNvbS9jYWNlcnQvZ3Nyc2FvdnNz
bGNhMjAxOC5jcnQwNwYIKwYBBQUHMAGGK2h0dHA6Ly9vY3NwLmdsb2JhbHNpZ24u
Y29tL2dzcnNhb3Zzc2xjYTIwMTgwVgYDVR0gBE8wTTBBBgkrBgEEAaAyARQwNDAy
BggrBgEFBQcCARYmaHR0cHM6Ly93d3cuZ2xvYmFsc2lnbi5jb20vcmVwb3NpdG9y
eS8wCAYGZ4EMAQICMAkGA1UdEwQCMAAwSwYDVR0RBEQwQoInaC1zbHAubW5jMDE3
Lm1jYzcxNi5wdWIuM2dwcG5ldHdvcmsub3JnghdlLXNscC5zdXBsLmVudGVsLm5l
dC5wZTAdBgNVHSUEFjAUBggrBgEFBQcDAQYIKwYBBQUHAwIwHwYDVR0jBBgwFoAU
+O9/8s14Z6jeb48kjYjxhwMCs+swHQYDVR0OBBYEFPAzQP+fCGYC4lXwMmdTYY5t
yIbXMIIBfgYKKwYBBAHWeQIEAgSCAW4EggFqAWgAdQAiRUUHWVUkVpY/oS/x922G
4CMmY63AS39dxoNcbuIPAgAAAXnAJbs6AAAEAwBGMEQCIEerGI6aBuWPwoYRxiOv
KtGBoARLJb8NpkSihzldJe+mAiB/JXzACbZslSgWEAfNNqPN56CBkQBLLaYUyz09
uQD2OAB3ACl5vvCeOTkh8FZzn2Old+W+V32cYAr4+U1dJlwlXceEAAABecAlvAIA
AAQDAEgwRgIhAND2M1SSBVLiJeARPUN95yfS1zf4qqt1ag8FwWU6XK/6AiEAlRX6
LdfjCM2noLAl1p6Q0LY3QENf8TNfp1z5QNTDNr4AdgBVgdTCFpA2AUrqC5tXPFPw
wOQ4eHAlCBcvo6odBxPTDAAAAXnAJbu2AAAEAwBHMEUCIHRkxrHTYl20tZ1xRvkc
0RhgTFq7ZpAttR6DanoCUU6oAiEAweGoBeItcbWLN1S/c8W8p54BHE9pRXUO8msG
Y+oXFZQwDQYJKoZIhvcNAQELBQADggEBAITe6BeWoXVLY1JeoDKG2i+Jxfk4r/2b
fQV/MCaD7zK9c2PMSIzpwAsJibjeEUBu4srezk2JFC4/Pw1L7MynLyrrlHL190U8
GyFgqRN/KsHdiql/j2UeP4xFOY2mYSL7x4Jkbara6WzpHw7l8nDN3rJoosPafbmi
enPiHO8g13rwscmQCP4AK9azzxm9PxYVG6ON/a/EH4HkevjZua+NOjSY4ptd+OMV
aIPJ54Jkr3HJ45uMNtGe3XXp5IVSMpkVwRlaQLLB8UcQ1ivsaRG9MHTKESPeNXHD
ijA+6UTs7XwWSk2cUUsr9yC3DR3Thw5SZ20C7m4xm5J8hGLYeRkjMhM=
-----END CERTIFICATE-----
Certificate:
    Data:
        Version: 3 (0x2)
        Serial Number:
            5f:bb:2d:26:64:cf:56:c4:ec:72:96:f4
    Signature Algorithm: sha256WithRSAEncryption
        Issuer: C=BE, O=GlobalSign nv-sa, CN=GlobalSign RSA OV SSL CA 2018
        Validity
            Not Before: May 31 01:59:24 2021 GMT
            Not After : Jul  2 01:59:24 2022 GMT
        Subject: C=PE, ST=LIMA, L=LIMA, O=Entel Peru S.A., CN=h-slp.mnc017.mcc716.pub.3gppnetwork.org
        Subject Public Key Info:
            Public Key Algorithm: rsaEncryption
                Public-Key: (2048 bit)
                Modulus:
                    00:9f:c6:01:4b:41:3f:24:ce:16:ac:ff:ee:a7:e1:
                    08:cd:63:20:93:31:fe:5d:f9:46:10:94:a2:fe:b0:
                    e7:0f:98:1b:7b:b8:64:24:bf:4a:da:f9:fa:a5:9d:
                    76:ea:65:be:79:72:5f:c9:07:09:65:27:01:ad:a1:
                    b4:cc:32:5e:18:f9:f3:87:89:b2:f3:16:55:b2:cb:
                    13:e2:00:5f:b3:ff:55:2a:54:70:1a:2e:68:4d:e8:
                    f0:f2:7e:bb:c8:b3:0f:34:ef:6b:5e:32:37:e7:aa:
                    1a:66:a4:e3:3d:94:73:b7:ea:c9:92:55:d0:23:fb:
                    94:75:e5:21:d6:71:88:e5:ac:59:d0:f7:fb:fc:63:
                    6f:92:41:5d:41:14:c7:c6:60:3c:46:f4:e5:82:52:
                    2b:49:40:74:29:16:85:4b:15:86:cf:18:e7:d2:75:
                    d4:c2:c9:ff:8a:60:06:4c:8b:62:c4:9a:ae:b6:51:
                    e8:37:97:ce:58:bf:b5:c6:16:ae:34:e9:a0:ae:74:
                    03:0f:53:c6:d9:45:1b:56:31:e0:99:16:df:db:45:
                    70:11:1b:cd:33:b7:ce:7a:86:8a:d1:08:60:45:51:
                    96:4b:7b:f5:8e:07:0a:42:73:7b:49:45:95:e8:d7:
                    4b:ae:bf:9a:35:48:29:63:a6:4d:93:db:dc:0b:2c:
                    29:3d
                Exponent: 65537 (0x10001)
        X509v3 extensions:
            X509v3 Key Usage: critical
                Digital Signature, Key Encipherment
            Authority Information Access: 
                CA Issuers - URI:http://secure.globalsign.com/cacert/gsrsaovsslca2018.crt
                OCSP - URI:http://ocsp.globalsign.com/gsrsaovsslca2018

            X509v3 Certificate Policies: 
                Policy: 1.3.6.1.4.1.4146.1.20
                  CPS: https://www.globalsign.com/repository/
                Policy: 2.23.140.1.2.2

            X509v3 Basic Constraints: 
                CA:FALSE
            X509v3 Subject Alternative Name: 
                DNS:h-slp.mnc017.mcc716.pub.3gppnetwork.org, DNS:e-slp.supl.entel.net.pe
            X509v3 Extended Key Usage: 
                TLS Web Server Authentication, TLS Web Client Authentication
            X509v3 Authority Key Identifier: 
                keyid:F8:EF:7F:F2:CD:78:67:A8:DE:6F:8F:24:8D:88:F1:87:03:02:B3:EB

            X509v3 Subject Key Identifier: 
                F0:33:40:FF:9F:08:66:02:E2:55:F0:32:67:53:61:8E:6D:C8:86:D7
            1.3.6.1.4.1.11129.2.4.2: 
                ...j.h.u."EE.YU$V.?./..m..#&c..K.]..\n......y.%.:.....F0D. G...........#.*....K%..D..9]%... .%|...l.(....6.......K-...==...8.w.)y...99!.Vs.c.w..W}.`
..M]&\%].....y.%.......H0F.!...3T..R.%..=C}.'..7...uj...e:\...!....-.......%.....7@C_.3_.\.@..6..v.U.....6.J...W<S...8xp%../..........y.%.......G0E. td...b]...qF....`LZ.f.-...jz.QN..!......-q..7T.s......OiEu..k.c....
    Signature Algorithm: sha256WithRSAEncryption
         84:de:e8:17:96:a1:75:4b:63:52:5e:a0:32:86:da:2f:89:c5:
         f9:38:af:fd:9b:7d:05:7f:30:26:83:ef:32:bd:73:63:cc:48:
         8c:e9:c0:0b:09:89:b8:de:11:40:6e:e2:ca:de:ce:4d:89:14:
         2e:3f:3f:0d:4b:ec:cc:a7:2f:2a:eb:94:72:f5:f7:45:3c:1b:
         21:60:a9:13:7f:2a:c1:dd:8a:a9:7f:8f:65:1e:3f:8c:45:39:
         8d:a6:61:22:fb:c7:82:64:6d:aa:da:e9:6c:e9:1f:0e:e5:f2:
         70:cd:de:b2:68:a2:c3:da:7d:b9:a2:7a:73:e2:1c:ef:20:d7:
         7a:f0:b1:c9:90:08:fe:00:2b:d6:b3:cf:19:bd:3f:16:15:1b:
         a3:8d:fd:af:c4:1f:81:e4:7a:f8:d9:b9:af:8d:3a:34:98:e2:
         9b:5d:f8:e3:15:68:83:c9:e7:82:64:af:71:c9:e3:9b:8c:36:
         d1:9e:dd:75:e9:e4:85:52:32:99:15:c1:19:5a:40:b2:c1:f1:
         47:10:d6:2b:ec:69:11:bd:30:74:ca:11:23:de:35:71:c3:8a:
         30:3e:e9:44:ec:ed:7c:16:4a:4d:9c:51:4b:2b:f7:20:b7:0d:
         1d:d3:87:0e:52:67:6d:02:ee:6e:31:9b:92:7c:84:62:d8:79:
         19:23:32:13
SHA1 Fingerprint=DE:C1:12:EB:54:65:70:F0:2E:8D:69:5F:C5:DF:18:54:66:3E:93:00
